
temp_HelloWorld.o:     file format elf32-sisa
temp_HelloWorld.o
architecture: sisa:3, flags 0x00000112:
EXEC_P, HAS_SYMS, D_PAGED
start address 0x00000000

Program Header:
    LOAD off    0x00000000 vaddr 0x0000bfac paddr 0x0000bfac align 2**0
         filesz 0x000001ee memsz 0x000001ee flags r-x

Sections:
Idx Name          Size      VMA       LMA       File off  Algn  Flags
  0 .sistema      0000019a  0000c000  0000c000  00000054  2**1  CONTENTS, ALLOC, LOAD, READONLY, CODE
  1 .stab         00000330  00008000  00008000  000001f0  2**2  CONTENTS, READONLY, DEBUGGING
  2 .stabstr      00000335  00008330  00008330  00000520  2**0  CONTENTS, READONLY, DEBUGGING
SYMBOL TABLE:
0000c000 l    d  .sistema	00000000 .sistema
00008000 l    d  .stab	00000000 .stab
00008330 l    d  .stabstr	00000000 .stabstr
00000000 l    d  *ABS*	00000000 .shstrtab
00000000 l    d  *ABS*	00000000 .symtab
00000000 l    d  *ABS*	00000000 .strtab
0000c012 l       .sistema	00000000 __exit
0000c000 g       .sistema	00000000 __entry_point
0000c19a g       *ABS*	00000000 __user_end
0000c014 g     F .sistema	00000044 write_one
0000c058 g     F .sistema	00000142 main
0000c19a g       *ABS*	00000000 __user_start


Disassembly of section .sistema:

0000c000 <__entry_point>:
    c000:	5e00 	movi	r7, 0
    c002:	5f82 	movhi	r7, -126
    c004:	5afa 	movi	r5, -6
    c006:	fb70 	wrs	s5, r5
    c008:	5a12 	movi	r5, 18
    c00a:	5bc0 	movhi	r5, -64
    c00c:	5c58 	movi	r6, 88
    c00e:	5dc0 	movhi	r6, -64
    c010:	a183 	jmp	r6

0000c012 <__exit>:
    c012:	ffff 	halt	

0000c014 <write_one>:

int write_one(int fila, int col, int c)
{
    c014:	2ff4 	addi	r7, r7, -12
    c016:	4bc5 	st	10(r7), r5
    c018:	4dc4 	st	8(r7), r6
    c01a:	2dc8 	addi	r6, r7, 8
    c01c:	41c1 	st	2(r7), r0
    c01e:	45c0 	st	0(r7), r2
  int res;
  int pos;

  pos=(80*fila+col)*2;    // cada caracter ocupa 2 bytes de memoria de video
    c020:	3382 	ld	r1, 4(r6)
    c022:	2440 	addi	r2, r1, 0
    c024:	5204 	movi	r1, 4
    c026:	04b1 	sha	r2, r2, r1
    c028:	5202 	movi	r1, 2
    c02a:	02b1 	sha	r1, r2, r1
    c02c:	04a1 	add	r2, r2, r1
    c02e:	3383 	ld	r1, 6(r6)
    c030:	02a1 	add	r1, r2, r1
    c032:	0261 	add	r1, r1, r1
    c034:	43bf 	st	-2(r6), r1
  pos = pos + 0xA000;	  // la memoria de video empieza en la direccion 0xA000 (40960)
    c036:	33bf 	ld	r1, -2(r6)
    c038:	5400 	movi	r2, 0
    c03a:	55a0 	movhi	r2, -96
    c03c:	0262 	add	r1, r1, r2
    c03e:	43bf 	st	-2(r6), r1

  __asm__ (
    c040:	31bf 	ld	r0, -2(r6)
    c042:	3384 	ld	r1, 8(r6)
    c044:	4200 	st	0(r0), r1
      "st 0(%0), %1"      // %0 corresponde a la variable "pos" que habra sido cargada en un registro
                          // %1 corresponde a la variable "c" que habra sido cargada en otro registro
      : /* sin salidas */
      : "a" (pos), "b" (c));  

  res=1;
    c046:	5201 	movi	r1, 1
    c048:	43be 	st	-4(r6), r1
  return res;
    c04a:	33be 	ld	r1, -4(r6)
}
    c04c:	31c1 	ld	r0, 2(r7)
    c04e:	35c0 	ld	r2, 0(r7)
    c050:	3dc4 	ld	r6, 8(r7)
    c052:	3bc5 	ld	r5, 10(r7)
    c054:	2fcc 	addi	r7, r7, 12
    c056:	a143 	jmp	r5

0000c058 <main>:
                        

int main () {
    c058:	2ff8 	addi	r7, r7, -8
    c05a:	4bc3 	st	6(r7), r5
    c05c:	4dc2 	st	4(r7), r6
    c05e:	2dc4 	addi	r6, r7, 4
    c060:	45c0 	st	0(r7), r2
    int valor;

 //    int src = 0xFA;
 //    int dest;
	//
 //  __asm__ (
 //    "movi %0, 0xFA\n\t"
	// "wrs %1, %0"
 // 	: "=r" (dest)
 // 	: "r" (src));           
	//
 //    if (dest) {
 //        write_one(2, 5, 0x3F48);
 //    }

    valor=0x3F48;     		/* H mayuscula en blanco */
    c062:	5248 	movi	r1, 72
    c064:	533f 	movhi	r1, 63
    c066:	43bf 	st	-2(r6), r1
    write_one(1,5,valor); 	/* escribe el caracter en la posicion fila=1,columna=5 */
    c068:	2ffa 	addi	r7, r7, -6
    c06a:	25c0 	addi	r2, r7, 0
    c06c:	5201 	movi	r1, 1
    c06e:	4280 	st	0(r2), r1
    c070:	5205 	movi	r1, 5
    c072:	4281 	st	2(r2), r1
    c074:	33bf 	ld	r1, -2(r6)
    c076:	4282 	st	4(r2), r1
    c078:	5214 	movi	r1, 20
    c07a:	53c0 	movhi	r1, -64
    c07c:	aa44 	jal	r5, r1
    c07e:	2fc6 	addi	r7, r7, 6
    valor=0x0365;     		/* e minuscula en rojo */
    c080:	5265 	movi	r1, 101
    c082:	5303 	movhi	r1, 3
    c084:	43bf 	st	-2(r6), r1
    write_one(1,6,valor); 	/* escribe el caracter en la posicion fila=1,columna=6 */
    c086:	2ffa 	addi	r7, r7, -6
    c088:	25c0 	addi	r2, r7, 0
    c08a:	5201 	movi	r1, 1
    c08c:	4280 	st	0(r2), r1
    c08e:	5206 	movi	r1, 6
    c090:	4281 	st	2(r2), r1
    c092:	33bf 	ld	r1, -2(r6)
    c094:	4282 	st	4(r2), r1
    c096:	5214 	movi	r1, 20
    c098:	53c0 	movhi	r1, -64
    c09a:	aa44 	jal	r5, r1
    c09c:	2fc6 	addi	r7, r7, 6
    valor=0x0C6C;     		/* l minuscula en verde */
    c09e:	526c 	movi	r1, 108
    c0a0:	530c 	movhi	r1, 12
    c0a2:	43bf 	st	-2(r6), r1
    write_one(1,7,valor); 	/* escribe el caracter en la posicion fila=1,columna=7 */
    c0a4:	2ffa 	addi	r7, r7, -6
    c0a6:	25c0 	addi	r2, r7, 0
    c0a8:	5201 	movi	r1, 1
    c0aa:	4280 	st	0(r2), r1
    c0ac:	5207 	movi	r1, 7
    c0ae:	4281 	st	2(r2), r1
    c0b0:	33bf 	ld	r1, -2(r6)
    c0b2:	4282 	st	4(r2), r1
    c0b4:	5214 	movi	r1, 20
    c0b6:	53c0 	movhi	r1, -64
    c0b8:	aa44 	jal	r5, r1
    c0ba:	2fc6 	addi	r7, r7, 6
    valor=0x306C;     		/* l minuscula en azul */
    c0bc:	526c 	movi	r1, 108
    c0be:	5330 	movhi	r1, 48
    c0c0:	43bf 	st	-2(r6), r1
    write_one(1,8,valor); 	/* escribe el caracter en la posicion fila=1,columna=8 */
    c0c2:	2ffa 	addi	r7, r7, -6
    c0c4:	25c0 	addi	r2, r7, 0
    c0c6:	5201 	movi	r1, 1
    c0c8:	4280 	st	0(r2), r1
    c0ca:	5208 	movi	r1, 8
    c0cc:	4281 	st	2(r2), r1
    c0ce:	33bf 	ld	r1, -2(r6)
    c0d0:	4282 	st	4(r2), r1
    c0d2:	5214 	movi	r1, 20
    c0d4:	53c0 	movhi	r1, -64
    c0d6:	aa44 	jal	r5, r1
    c0d8:	2fc6 	addi	r7, r7, 6
    valor=0x156F;     		/* o minuscula en gris oscuro */
    c0da:	526f 	movi	r1, 111
    c0dc:	5315 	movhi	r1, 21
    c0de:	43bf 	st	-2(r6), r1
    write_one(1,9,valor); 	/* escribe el caracter en la posicion fila=1,columna=9 */
    c0e0:	2ffa 	addi	r7, r7, -6
    c0e2:	25c0 	addi	r2, r7, 0
    c0e4:	5201 	movi	r1, 1
    c0e6:	4280 	st	0(r2), r1
    c0e8:	5209 	movi	r1, 9
    c0ea:	4281 	st	2(r2), r1
    c0ec:	33bf 	ld	r1, -2(r6)
    c0ee:	4282 	st	4(r2), r1
    c0f0:	5214 	movi	r1, 20
    c0f2:	53c0 	movhi	r1, -64
    c0f4:	aa44 	jal	r5, r1
    c0f6:	2fc6 	addi	r7, r7, 6


    valor=0x3C57;     		/* W mayuscula en azul cielo */
    c0f8:	5257 	movi	r1, 87
    c0fa:	533c 	movhi	r1, 60
    c0fc:	43bf 	st	-2(r6), r1
    write_one(1,11,valor); 	/* escribe el caracter en la posicion fila=1,columna=11 */
    c0fe:	2ffa 	addi	r7, r7, -6
    c100:	25c0 	addi	r2, r7, 0
    c102:	5201 	movi	r1, 1
    c104:	4280 	st	0(r2), r1
    c106:	520b 	movi	r1, 11
    c108:	4281 	st	2(r2), r1
    c10a:	33bf 	ld	r1, -2(r6)
    c10c:	4282 	st	4(r2), r1
    c10e:	5214 	movi	r1, 20
    c110:	53c0 	movhi	r1, -64
    c112:	aa44 	jal	r5, r1
    c114:	2fc6 	addi	r7, r7, 6
    valor=0x0F6F;     		/* o minuscula en amarillo */
    c116:	526f 	movi	r1, 111
    c118:	530f 	movhi	r1, 15
    c11a:	43bf 	st	-2(r6), r1
    write_one(1,12,valor); 	/* escribe el caracter en la posicion fila=1,columna=12 */
    c11c:	2ffa 	addi	r7, r7, -6
    c11e:	25c0 	addi	r2, r7, 0
    c120:	5201 	movi	r1, 1
    c122:	4280 	st	0(r2), r1
    c124:	520c 	movi	r1, 12
    c126:	4281 	st	2(r2), r1
    c128:	33bf 	ld	r1, -2(r6)
    c12a:	4282 	st	4(r2), r1
    c12c:	5214 	movi	r1, 20
    c12e:	53c0 	movhi	r1, -64
    c130:	aa44 	jal	r5, r1
    c132:	2fc6 	addi	r7, r7, 6
    valor=0x3372;     		/* r minuscula en lila */
    c134:	5272 	movi	r1, 114
    c136:	5333 	movhi	r1, 51
    c138:	43bf 	st	-2(r6), r1
    write_one(1,13,valor); 	/* escribe el caracter en la posicion fila=1,columna=13 */
    c13a:	2ffa 	addi	r7, r7, -6
    c13c:	25c0 	addi	r2, r7, 0
    c13e:	5201 	movi	r1, 1
    c140:	4280 	st	0(r2), r1
    c142:	520d 	movi	r1, 13
    c144:	4281 	st	2(r2), r1
    c146:	33bf 	ld	r1, -2(r6)
    c148:	4282 	st	4(r2), r1
    c14a:	5214 	movi	r1, 20
    c14c:	53c0 	movhi	r1, -64
    c14e:	aa44 	jal	r5, r1
    c150:	2fc6 	addi	r7, r7, 6
    valor=0x2A6C;     		/* l minuscula en gris claro */
    c152:	526c 	movi	r1, 108
    c154:	532a 	movhi	r1, 42
    c156:	43bf 	st	-2(r6), r1
    write_one(1,14,valor); 	/* escribe el caracter en la posicion fila=1,columna=14 */
    c158:	2ffa 	addi	r7, r7, -6
    c15a:	25c0 	addi	r2, r7, 0
    c15c:	5201 	movi	r1, 1
    c15e:	4280 	st	0(r2), r1
    c160:	520e 	movi	r1, 14
    c162:	4281 	st	2(r2), r1
    c164:	33bf 	ld	r1, -2(r6)
    c166:	4282 	st	4(r2), r1
    c168:	5214 	movi	r1, 20
    c16a:	53c0 	movhi	r1, -64
    c16c:	aa44 	jal	r5, r1
    c16e:	2fc6 	addi	r7, r7, 6
    valor=0x3F64;     		/* d minuscula en blanco */
    c170:	5264 	movi	r1, 100
    c172:	533f 	movhi	r1, 63
    c174:	43bf 	st	-2(r6), r1
    write_one(1,15,valor); 	/* escribe el caracter en la posicion fila=1,columna=15 */
    c176:	2ffa 	addi	r7, r7, -6
    c178:	25c0 	addi	r2, r7, 0
    c17a:	5201 	movi	r1, 1
    c17c:	4280 	st	0(r2), r1
    c17e:	520f 	movi	r1, 15
    c180:	4281 	st	2(r2), r1
    c182:	33bf 	ld	r1, -2(r6)
    c184:	4282 	st	4(r2), r1
    c186:	5214 	movi	r1, 20
    c188:	53c0 	movhi	r1, -64
    c18a:	aa44 	jal	r5, r1
    c18c:	2fc6 	addi	r7, r7, 6

    return valor;
    c18e:	33bf 	ld	r1, -2(r6)
}
    c190:	35c0 	ld	r2, 0(r7)
    c192:	3dc2 	ld	r6, 4(r7)
    c194:	3bc3 	ld	r5, 6(r7)
    c196:	2fc8 	addi	r7, r7, 8
    c198:	a143 	jmp	r5
